; Function Attrs: nounwind uwtable
define internal i32 @cdataSectionProcessor(ptr noundef %0, ptr noundef %1, ptr noundef %2, ptr noundef writeonly captures(none) %3) #0 {
  %5 = alloca ptr, align 8
  store ptr %1, ptr %5, align 8, !tbaa !185
  %6 = getelementptr inbounds nuw i8, ptr %0, i64 304
  %7 = load ptr, ptr %6, align 8, !tbaa !186
  %8 = getelementptr inbounds nuw i8, ptr %0, i64 900
  %9 = load i8, ptr %8, align 4, !tbaa !187
  %.not = icmp eq i8 %9, 0
  %10 = zext i1 %.not to i8
  %11 = call fastcc i32 @doCdataSection(ptr noundef %0, ptr noundef %7, ptr noundef %5, ptr noundef %2, ptr noundef %3, i8 noundef zeroext %10)
  %.not18 = icmp eq i32 %11, 0
  br i1 %.not18, label %12, label %22

12:                                               ; preds = %4
  %13 = load ptr, ptr %5, align 8, !tbaa !185
  %.not19 = icmp eq ptr %13, null
  br i1 %.not19, label %22, label %14

14:                                               ; preds = %12
  %15 = getelementptr inbounds nuw i8, ptr %0, i64 888
  %16 = load ptr, ptr %15, align 8, !tbaa !78
  %.not20 = icmp eq ptr %16, null
  %17 = getelementptr inbounds nuw i8, ptr %0, i64 520
  br i1 %.not20, label %20, label %18

18:                                               ; preds = %14
  store ptr @externalEntityContentProcessor, ptr %17, align 8, !tbaa !61
  %19 = tail call i32 @externalEntityContentProcessor(ptr noundef nonnull %0, ptr noundef nonnull %13, ptr noundef %2, ptr noundef %3)
  br label %22

20:                                               ; preds = %14
  store ptr @contentProcessor, ptr %17, align 8, !tbaa !61
  %21 = tail call i32 @contentProcessor(ptr noundef nonnull %0, ptr noundef nonnull %13, ptr noundef %2, ptr noundef %3)
  br label %22

22:                                               ; preds = %12, %4, %20, %18
  %.0 = phi i32 [ %19, %18 ], [ %21, %20 ], [ %11, %4 ], [ 0, %12 ]
  ret i32 %.0
}